target datalayout = "e-m:e-p270:32:32-p271:32:32-p272:64:64-i64:64-i128:128-f80:128-n8:16:32:64-S128"
target triple = "x86_64-pc-linux-gnu"

%"class.fmt::v11::basic_string_view" = type { ptr, i64 }
%"class.fmt::v11::basic_format_args" = type { i64, %union.anon.6 }
%union.anon.6 = type { ptr }
%"class.std::__cxx11::basic_string" = type { %"struct.std::__cxx11::basic_string<char>::_Alloc_hider", i64, %union.anon.4 }
%"struct.std::__cxx11::basic_string<char>::_Alloc_hider" = type { ptr }
%union.anon.4 = type { i64, [8 x i8] }
%"class.std::system_error" = type { %"class.std::runtime_error", %"class.std::error_code" }
%"class.std::runtime_error" = type { %"class.std::exception", %"struct.std::__cow_string" }
%"class.std::exception" = type { ptr }
%"struct.std::__cow_string" = type { %union.anon.5 }
%union.anon.5 = type { ptr }
%"class.std::error_code" = type { i32, ptr }

; Function Attrs: mustprogress nounwind uwtable
define linkonce_odr hidden void @_ZNSt15__new_allocatorIcE10deallocateEPcm(ptr noundef nonnull align 1 dereferenceable(1) %0, ptr noundef %1, i64 noundef %2) #3 comdat align 2 {
  %4 = alloca ptr, align 8
  %5 = alloca ptr, align 8
  %6 = alloca i64, align 8
  store ptr %0, ptr %4, align 8, !tbaa !232
  store ptr %1, ptr %5, align 8, !tbaa !4
  store i64 %2, ptr %6, align 8, !tbaa !15
  %7 = load ptr, ptr %5, align 8, !tbaa !4
  %8 = load i64, ptr %6, align 8, !tbaa !15
  %9 = mul i64 %8, 1
  call void @_ZdlPvm(ptr noundef %7, i64 noundef %9) #31
  ret void
}

; Function Attrs: mustprogress nounwind uwtable
define linkonce_odr hidden noundef ptr @_ZNSt19__ptr_traits_ptr_toIPKcS0_Lb0EE10pointer_toERS0_(ptr noundef nonnull align 1 dereferenceable(1) %0) #3 comdat align 2 {
  %2 = alloca ptr, align 8
  store ptr %0, ptr %2, align 8, !tbaa !4
  %3 = load ptr, ptr %2, align 8, !tbaa !4
  ret ptr %3
}

; Function Attrs: mustprogress uwtable
define linkonce_odr hidden void @_ZNSt16allocator_traitsISaIcEE10deallocateERS0_Pcm(ptr noundef nonnull align 1 dereferenceable(1) %0, ptr noundef %1, i64 noundef %2) #4 comdat align 2 {
  %4 = alloca ptr, align 8
  %5 = alloca ptr, align 8
  %6 = alloca i64, align 8
  store ptr %0, ptr %4, align 8, !tbaa !230
  store ptr %1, ptr %5, align 8, !tbaa !4
  store i64 %2, ptr %6, align 8, !tbaa !15
  %7 = load ptr, ptr %4, align 8, !tbaa !230
  %8 = load ptr, ptr %5, align 8, !tbaa !4
  %9 = load i64, ptr %6, align 8, !tbaa !15
  call void @_ZNSt15__new_allocatorIcE10deallocateEPcm(ptr noundef nonnull align 1 dereferenceable(1) %7, ptr noundef %8, i64 noundef %9)
  ret void
}

; Function Attrs: mustprogress nounwind uwtable
define available_externally noundef nonnull align 1 dereferenceable(1) ptr @_ZNSt7__cxx1112basic_stringIcSt11char_traitsIcESaIcEE16_M_get_allocatorEv(ptr noundef nonnull align 8 dereferenceable(32) %0) #3 align 2 {
  %2 = alloca ptr, align 8
  store ptr %0, ptr %2, align 8, !tbaa !85
  %3 = load ptr, ptr %2, align 8
  %4 = getelementptr inbounds nuw %"class.std::__cxx11::basic_string", ptr %3, i32 0, i32 0
  ret ptr %4
}

; Function Attrs: mustprogress nounwind uwtable
define available_externally noundef ptr @_ZNKSt7__cxx1112basic_stringIcSt11char_traitsIcESaIcEE13_M_local_dataEv(ptr noundef nonnull align 8 dereferenceable(32) %0) #3 align 2 {
  %2 = alloca ptr, align 8
  store ptr %0, ptr %2, align 8, !tbaa !85
  %3 = load ptr, ptr %2, align 8
  %4 = getelementptr inbounds nuw %"class.std::__cxx11::basic_string", ptr %3, i32 0, i32 2
  %5 = getelementptr inbounds [16 x i8], ptr %4, i64 0, i64 0
  %6 = call noundef ptr @_ZNSt19__ptr_traits_ptr_toIPKcS0_Lb0EE10pointer_toERS0_(ptr noundef nonnull align 1 dereferenceable(1) %5) #26
  ret ptr %6
}

; Function Attrs: mustprogress nounwind uwtable
define available_externally noundef ptr @_ZNKSt7__cxx1112basic_stringIcSt11char_traitsIcESaIcEE7_M_dataEv(ptr noundef nonnull align 8 dereferenceable(32) %0) #3 align 2 {
  %2 = alloca ptr, align 8
  store ptr %0, ptr %2, align 8, !tbaa !85
  %3 = load ptr, ptr %2, align 8
  %4 = getelementptr inbounds nuw %"class.std::__cxx11::basic_string", ptr %3, i32 0, i32 0
  %5 = getelementptr inbounds nuw %"struct.std::__cxx11::basic_string<char>::_Alloc_hider", ptr %4, i32 0, i32 0
  %6 = load ptr, ptr %5, align 8, !tbaa !229
  ret ptr %6
}

; Function Attrs: mustprogress nounwind uwtable
define available_externally void @_ZNSt7__cxx1112basic_stringIcSt11char_traitsIcESaIcEE10_M_destroyEm(ptr noundef nonnull align 8 dereferenceable(32) %0, i64 noundef %1) #3 align 2 personality ptr @__gxx_personality_v0 {
  %3 = alloca ptr, align 8
  %4 = alloca i64, align 8
  store ptr %0, ptr %3, align 8, !tbaa !85
  store i64 %1, ptr %4, align 8, !tbaa !15
  %5 = load ptr, ptr %3, align 8
  %6 = invoke noundef nonnull align 1 dereferenceable(1) ptr @_ZNSt7__cxx1112basic_stringIcSt11char_traitsIcESaIcEE16_M_get_allocatorEv(ptr noundef nonnull align 8 dereferenceable(32) %5)
          to label %7 unwind label %12

7:                                                ; preds = %2
  %8 = call noundef ptr @_ZNKSt7__cxx1112basic_stringIcSt11char_traitsIcESaIcEE7_M_dataEv(ptr noundef nonnull align 8 dereferenceable(32) %5)
  %9 = load i64, ptr %4, align 8, !tbaa !15
  %10 = add i64 %9, 1
  invoke void @_ZNSt16allocator_traitsISaIcEE10deallocateERS0_Pcm(ptr noundef nonnull align 1 dereferenceable(1) %6, ptr noundef %8, i64 noundef %10)
          to label %11 unwind label %12

11:                                               ; preds = %7
  ret void

12:                                               ; preds = %7, %2
  %13 = landingpad { ptr, i32 }
          catch ptr null
  %14 = extractvalue { ptr, i32 } %13, 0
  call void @__clang_call_terminate(ptr %14) #27
  unreachable
}

; Function Attrs: mustprogress uwtable
define available_externally noundef zeroext i1 @_ZNKSt7__cxx1112basic_stringIcSt11char_traitsIcESaIcEE11_M_is_localEv(ptr noundef nonnull align 8 dereferenceable(32) %0) #4 align 2 {
  %2 = alloca i1, align 1
  %3 = alloca ptr, align 8
  store ptr %0, ptr %3, align 8, !tbaa !85
  %4 = load ptr, ptr %3, align 8
  %5 = call noundef ptr @_ZNKSt7__cxx1112basic_stringIcSt11char_traitsIcESaIcEE7_M_dataEv(ptr noundef nonnull align 8 dereferenceable(32) %4)
  %6 = call noundef ptr @_ZNKSt7__cxx1112basic_stringIcSt11char_traitsIcESaIcEE13_M_local_dataEv(ptr noundef nonnull align 8 dereferenceable(32) %4)
  %7 = icmp eq ptr %5, %6
  br i1 %7, label %8, label %14

8:                                                ; preds = %1
  %9 = getelementptr inbounds nuw %"class.std::__cxx11::basic_string", ptr %4, i32 0, i32 1
  %10 = load i64, ptr %9, align 8, !tbaa !228
  %11 = icmp ugt i64 %10, 15
  br i1 %11, label %12, label %13

12:                                               ; preds = %8
  unreachable

13:                                               ; preds = %8
  store i1 true, ptr %2, align 1
  br label %15

14:                                               ; preds = %1
  store i1 false, ptr %2, align 1
  br label %15

15:                                               ; preds = %14, %13
  %16 = load i1, ptr %2, align 1
  ret i1 %16
}

; Function Attrs: noinline noreturn nounwind uwtable
define linkonce_odr hidden void @__clang_call_terminate(ptr noundef %0) #5 comdat {
  %2 = call ptr @__cxa_begin_catch(ptr %0) #26
  call void @_ZSt9terminatev() #27
  unreachable
}

; Function Attrs: mustprogress nounwind uwtable
define linkonce_odr hidden void @_ZNSt15__new_allocatorIcED2Ev(ptr noundef nonnull align 1 dereferenceable(1) %0) unnamed_addr #3 comdat align 2 {
  %2 = alloca ptr, align 8
  store ptr %0, ptr %2, align 8, !tbaa !232
  ret void
}

; Function Attrs: mustprogress uwtable
define available_externally void @_ZNSt7__cxx1112basic_stringIcSt11char_traitsIcESaIcEE10_M_disposeEv(ptr noundef nonnull align 8 dereferenceable(32) %0) #4 align 2 {
  %2 = alloca ptr, align 8
  store ptr %0, ptr %2, align 8, !tbaa !85
  %3 = load ptr, ptr %2, align 8
  %4 = call noundef zeroext i1 @_ZNKSt7__cxx1112basic_stringIcSt11char_traitsIcESaIcEE11_M_is_localEv(ptr noundef nonnull align 8 dereferenceable(32) %3)
  br i1 %4, label %8, label %5

5:                                                ; preds = %1
  %6 = getelementptr inbounds nuw %"class.std::__cxx11::basic_string", ptr %3, i32 0, i32 2
  %7 = load i64, ptr %6, align 8, !tbaa !53
  call void @_ZNSt7__cxx1112basic_stringIcSt11char_traitsIcESaIcEE10_M_destroyEm(ptr noundef nonnull align 8 dereferenceable(32) %3, i64 noundef %7) #26
  br label %8

8:                                                ; preds = %5, %1
  ret void
}

; Function Attrs: mustprogress nounwind uwtable
define available_externally void @_ZNSt7__cxx1112basic_stringIcSt11char_traitsIcESaIcEED2Ev(ptr noundef nonnull align 8 dereferenceable(32) %0) unnamed_addr #3 align 2 personality ptr @__gxx_personality_v0 {
  %2 = alloca ptr, align 8
  store ptr %0, ptr %2, align 8, !tbaa !85
  %3 = load ptr, ptr %2, align 8
  invoke void @_ZNSt7__cxx1112basic_stringIcSt11char_traitsIcESaIcEE10_M_disposeEv(ptr noundef nonnull align 8 dereferenceable(32) %3)
          to label %4 unwind label %6

4:                                                ; preds = %1
  %5 = getelementptr inbounds nuw %"class.std::__cxx11::basic_string", ptr %3, i32 0, i32 0
  call void @_ZNSt15__new_allocatorIcED2Ev(ptr noundef nonnull align 8 dereferenceable(8) %5) #26
  ret void

6:                                                ; preds = %1
  %7 = landingpad { ptr, i32 }
          catch ptr null
  %8 = extractvalue { ptr, i32 } %7, 0
  call void @__clang_call_terminate(ptr %8) #27
  unreachable
}

; Function Attrs: mustprogress nounwind uwtable
define linkonce_odr hidden void @_ZNSt10error_codeC2EiRKNSt3_V214error_categoryE(ptr noundef nonnull align 8 dereferenceable(16) %0, i32 noundef %1, ptr noundef nonnull align 8 dereferenceable(8) %2) unnamed_addr #3 comdat align 2 {
  %4 = alloca ptr, align 8
  %5 = alloca i32, align 4
  %6 = alloca ptr, align 8
  store ptr %0, ptr %4, align 8, !tbaa !93
  store i32 %1, ptr %5, align 4, !tbaa !9
  store ptr %2, ptr %6, align 8, !tbaa !88
  %7 = load ptr, ptr %4, align 8
  %8 = getelementptr inbounds nuw %"class.std::error_code", ptr %7, i32 0, i32 0
  %9 = load i32, ptr %5, align 4, !tbaa !9
  store i32 %9, ptr %8, align 8, !tbaa !95
  %10 = getelementptr inbounds nuw %"class.std::error_code", ptr %7, i32 0, i32 1
  %11 = load ptr, ptr %6, align 8, !tbaa !88
  store ptr %11, ptr %10, align 8, !tbaa !97
  ret void
}

; Function Attrs: mustprogress uwtable
define hidden void @_ZN3fmt3v1113vsystem_errorEiNS0_17basic_string_viewIcEENS0_17basic_format_argsINS0_7contextEEE(ptr dead_on_unwind noalias writable sret(%"class.std::system_error") align 8 %0, i32 noundef %1, ptr %2, i64 %3, i64 %4, ptr %5) #4 personality ptr @__gxx_personality_v0 {
  %7 = alloca ptr, align 8
  %8 = alloca %"class.fmt::v11::basic_string_view", align 8
  %9 = alloca %"class.fmt::v11::basic_format_args", align 8
  %10 = alloca i32, align 4
  %11 = alloca %"class.std::error_code", align 8
  %12 = alloca %"class.std::error_code", align 8
  %13 = alloca %"class.std::__cxx11::basic_string", align 8
  %14 = alloca %"class.fmt::v11::basic_string_view", align 8
  %15 = alloca %"class.fmt::v11::basic_format_args", align 8
  %16 = alloca ptr, align 8
  %17 = alloca i32, align 4
  store ptr %0, ptr %7, align 8
  %18 = getelementptr inbounds nuw { ptr, i64 }, ptr %8, i32 0, i32 0
  store ptr %2, ptr %18, align 8
  %19 = getelementptr inbounds nuw { ptr, i64 }, ptr %8, i32 0, i32 1
  store i64 %3, ptr %19, align 8
  %20 = getelementptr inbounds nuw { i64, ptr }, ptr %9, i32 0, i32 0
  store i64 %4, ptr %20, align 8
  %21 = getelementptr inbounds nuw { i64, ptr }, ptr %9, i32 0, i32 1
  store ptr %5, ptr %21, align 8
  store i32 %1, ptr %10, align 4, !tbaa !9
  call void @llvm.lifetime.start.p0(i64 16, ptr %11) #26
  %22 = load i32, ptr %10, align 4, !tbaa !9
  %23 = call noundef nonnull align 8 dereferenceable(8) ptr @_ZNSt3_V216generic_categoryEv() #29
  call void @_ZNSt10error_codeC2EiRKNSt3_V214error_categoryE(ptr noundef nonnull align 8 dereferenceable(16) %11, i32 noundef %22, ptr noundef nonnull align 8 dereferenceable(8) %23) #26
  call void @llvm.memcpy.p0.p0.i64(ptr align 8 %12, ptr align 8 %11, i64 16, i1 false), !tbaa.struct !87
  call void @llvm.lifetime.start.p0(i64 32, ptr %13) #26
  call void @llvm.memcpy.p0.p0.i64(ptr align 8 %14, ptr align 8 %8, i64 16, i1 false), !tbaa.struct !30
  call void @llvm.memcpy.p0.p0.i64(ptr align 8 %15, ptr align 8 %9, i64 16, i1 false), !tbaa.struct !90
  %24 = getelementptr inbounds nuw { ptr, i64 }, ptr %14, i32 0, i32 0
  %25 = load ptr, ptr %24, align 8
  %26 = getelementptr inbounds nuw { ptr, i64 }, ptr %14, i32 0, i32 1
  %27 = load i64, ptr %26, align 8
  %28 = getelementptr inbounds nuw { i64, ptr }, ptr %15, i32 0, i32 0
  %29 = load i64, ptr %28, align 8
  %30 = getelementptr inbounds nuw { i64, ptr }, ptr %15, i32 0, i32 1
  %31 = load ptr, ptr %30, align 8
  call void @_ZN3fmt3v117vformatB5cxx11ENS0_17basic_string_viewIcEENS0_17basic_format_argsINS0_7contextEEE(ptr dead_on_unwind writable sret(%"class.std::__cxx11::basic_string") align 8 %13, ptr %25, i64 %27, i64 %29, ptr %31)
  %32 = getelementptr inbounds nuw { i32, ptr }, ptr %12, i32 0, i32 0
  %33 = load i32, ptr %32, align 8
  %34 = getelementptr inbounds nuw { i32, ptr }, ptr %12, i32 0, i32 1
  %35 = load ptr, ptr %34, align 8
  invoke void @_ZNSt12system_errorC2ESt10error_codeRKNSt7__cxx1112basic_stringIcSt11char_traitsIcESaIcEEE(ptr noundef nonnull align 8 dereferenceable(32) %0, i32 %33, ptr %35, ptr noundef nonnull align 8 dereferenceable(32) %13)
          to label %36 unwind label %37

36:                                               ; preds = %6
  call void @_ZNSt7__cxx1112basic_stringIcSt11char_traitsIcESaIcEED2Ev(ptr noundef nonnull align 8 dereferenceable(32) %13) #26
  call void @llvm.lifetime.end.p0(i64 32, ptr %13) #26
  call void @llvm.lifetime.end.p0(i64 16, ptr %11) #26
  ret void

37:                                               ; preds = %6
  %38 = landingpad { ptr, i32 }
          cleanup
  %39 = extractvalue { ptr, i32 } %38, 0
  store ptr %39, ptr %16, align 8
  %40 = extractvalue { ptr, i32 } %38, 1
  store i32 %40, ptr %17, align 4
  call void @_ZNSt7__cxx1112basic_stringIcSt11char_traitsIcESaIcEED2Ev(ptr noundef nonnull align 8 dereferenceable(32) %13) #26
  call void @llvm.lifetime.end.p0(i64 32, ptr %13) #26
  call void @llvm.lifetime.end.p0(i64 16, ptr %11) #26
  br label %41

41:                                               ; preds = %37
  %42 = load ptr, ptr %16, align 8
  %43 = load i32, ptr %17, align 4
  %44 = insertvalue { ptr, i32 } poison, ptr %42, 0
  %45 = insertvalue { ptr, i32 } %44, i32 %43, 1
  resume { ptr, i32 } %45
}